target datalayout = "e-m:e-p270:32:32-p271:32:32-p272:64:64-i64:64-i128:128-f80:128-n8:16:32:64-S128"
target triple = "x86_64-pc-linux-gnu"

; Function Attrs: mustprogress uwtable
define noundef i32 @_ZN6icu_7716BytesTrieBuilder17writeValueAndTypeEaii(ptr noundef nonnull align 8 dereferenceable(56) %0, i8 noundef signext %1, i32 noundef %2, i32 noundef %3) unnamed_addr #1 align 2 {
  %5 = alloca ptr, align 8
  %6 = alloca i8, align 1
  %7 = alloca i32, align 4
  %8 = alloca i32, align 4
  %9 = alloca i32, align 4
  store ptr %0, ptr %5, align 8, !tbaa !37
  store i8 %1, ptr %6, align 1, !tbaa !52
  store i32 %2, ptr %7, align 4, !tbaa !14
  store i32 %3, ptr %8, align 4, !tbaa !14
  %10 = load ptr, ptr %5, align 8
  call void @llvm.lifetime.start.p0(i64 4, ptr %9) #12
  %11 = load i32, ptr %8, align 4, !tbaa !14
  %12 = load ptr, ptr %10, align 8, !tbaa !39
  %13 = getelementptr inbounds ptr, ptr %12, i64 15
  %14 = load ptr, ptr %13, align 8
  %15 = call noundef i32 %14(ptr noundef nonnull align 8 dereferenceable(56) %10, i32 noundef %11)
  store i32 %15, ptr %9, align 4, !tbaa !14
  %16 = load i8, ptr %6, align 1, !tbaa !52
  %17 = icmp ne i8 %16, 0
  br i1 %17, label %18, label %24

18:                                               ; preds = %4
  %19 = load i32, ptr %7, align 4, !tbaa !14
  %20 = load ptr, ptr %10, align 8, !tbaa !39
  %21 = getelementptr inbounds ptr, ptr %20, i64 17
  %22 = load ptr, ptr %21, align 8
  %23 = call noundef i32 %22(ptr noundef nonnull align 8 dereferenceable(56) %10, i32 noundef %19, i8 noundef signext 0)
  store i32 %23, ptr %9, align 4, !tbaa !14
  br label %24

24:                                               ; preds = %18, %4
  %25 = load i32, ptr %9, align 4, !tbaa !14
  call void @llvm.lifetime.end.p0(i64 4, ptr %9) #12
  ret i32 %25
}