; Function Attrs: mustprogress uwtable
define noundef i32 @_ZN6icu_7716BytesTrieBuilder17writeValueAndTypeEaii(ptr noundef nonnull align 8 dereferenceable(56) %0, i8 noundef signext %1, i32 noundef %2, i32 noundef %3) unnamed_addr #1 align 2 {
  %5 = load ptr, ptr %0, align 8, !tbaa !21
  %6 = getelementptr inbounds nuw i8, ptr %5, i64 120
  %7 = load ptr, ptr %6, align 8
  %8 = tail call noundef i32 %7(ptr noundef nonnull align 8 dereferenceable(56) %0, i32 noundef %3)
  %.not = icmp eq i8 %1, 0
  br i1 %.not, label %14, label %9

9:                                                ; preds = %4
  %10 = load ptr, ptr %0, align 8, !tbaa !21
  %11 = getelementptr inbounds nuw i8, ptr %10, i64 136
  %12 = load ptr, ptr %11, align 8
  %13 = tail call noundef i32 %12(ptr noundef nonnull align 8 dereferenceable(56) %0, i32 noundef %2, i8 noundef signext 0)
  br label %14

14:                                               ; preds = %9, %4
  %.0 = phi i32 [ %13, %9 ], [ %8, %4 ]
  ret i32 %.0
}